target datalayout = "e-m:e-p270:32:32-p271:32:32-p272:64:64-i64:64-i128:128-f80:128-n8:16:32:64-S128"
target triple = "x86_64-pc-linux-gnu"

%struct.QUIC_STATELESS_RESET_TOKEN = type { [16 x i8] }
%struct.quic_conn_id_st = type { i8, [20 x i8] }
%struct.ossl_quic_frame_new_conn_id_st = type { i64, i64, %struct.quic_conn_id_st, %struct.QUIC_STATELESS_RESET_TOKEN }

@.str.5 = private unnamed_addr constant [33 x i8] c"../openssl/test/quic_wire_test.c\00", align 1
@.str.23 = private unnamed_addr constant [9 x i8] c"fail < 0\00", align 1
@.str.55 = private unnamed_addr constant [7 x i8] c"0x1234\00", align 1
@.str.81 = private unnamed_addr constant [7 x i8] c"0x9781\00", align 1
@.str.109 = private unnamed_addr constant [49 x i8] c"ossl_quic_wire_decode_frame_new_conn_id(pkt, &f)\00", align 1
@.str.110 = private unnamed_addr constant [10 x i8] c"f.seq_num\00", align 1
@.str.111 = private unnamed_addr constant [18 x i8] c"f.retire_prior_to\00", align 1
@.str.112 = private unnamed_addr constant [17 x i8] c"f.conn_id.id_len\00", align 1
@.str.113 = private unnamed_addr constant [31 x i8] c"sizeof(encode_case_16_conn_id)\00", align 1
@.str.114 = private unnamed_addr constant [13 x i8] c"f.conn_id.id\00", align 1
@.str.115 = private unnamed_addr constant [23 x i8] c"encode_case_16_conn_id\00", align 1
@encode_case_16_conn_id = internal constant [4 x i8] c"3DUf", align 1
@.str.116 = private unnamed_addr constant [24 x i8] c"f.stateless_reset.token\00", align 1
@.str.117 = private unnamed_addr constant [39 x i8] c"encode_case_16_f.stateless_reset.token\00", align 1

; Function Attrs: nounwind uwtable
define internal i32 @encode_case_16_dec(ptr noundef %0, i64 noundef %1) #0 {
  %3 = alloca i32, align 4
  %4 = alloca ptr, align 8
  %5 = alloca i64, align 8
  %6 = alloca %struct.ossl_quic_frame_new_conn_id_st, align 8
  %7 = alloca i32, align 4
  store ptr %0, ptr %4, align 8, !tbaa !40
  store i64 %1, ptr %5, align 8, !tbaa !19
  call void @llvm.lifetime.start.p0(i64 56, ptr %6) #5
  call void @llvm.memset.p0.i64(ptr align 8 %6, i8 0, i64 56, i1 false)
  %8 = load ptr, ptr %4, align 8, !tbaa !40
  %9 = call i32 @ossl_quic_wire_decode_frame_new_conn_id(ptr noundef %8, ptr noundef %6)
  %10 = load i64, ptr %5, align 8, !tbaa !19
  %11 = icmp slt i64 %10, 0
  %12 = zext i1 %11 to i32
  %13 = call i32 @test_int_eq(ptr noundef @.str.5, i32 noundef 769, ptr noundef @.str.109, ptr noundef @.str.23, i32 noundef %9, i32 noundef %12)
  %14 = icmp ne i32 %13, 0
  br i1 %14, label %16, label %15

15:                                               ; preds = %2
  store i32 0, ptr %3, align 4
  store i32 1, ptr %7, align 4
  br label %59

16:                                               ; preds = %2
  %17 = load i64, ptr %5, align 8, !tbaa !19
  %18 = icmp sge i64 %17, 0
  br i1 %18, label %19, label %20

19:                                               ; preds = %16
  store i32 1, ptr %3, align 4
  store i32 1, ptr %7, align 4
  br label %59

20:                                               ; preds = %16
  %21 = getelementptr inbounds nuw %struct.ossl_quic_frame_new_conn_id_st, ptr %6, i32 0, i32 0
  %22 = load i64, ptr %21, align 8, !tbaa !63
  %23 = call i32 @test_uint64_t_eq(ptr noundef @.str.5, i32 noundef 775, ptr noundef @.str.110, ptr noundef @.str.81, i64 noundef %22, i64 noundef 38785)
  %24 = icmp ne i32 %23, 0
  br i1 %24, label %26, label %25

25:                                               ; preds = %20
  store i32 0, ptr %3, align 4
  store i32 1, ptr %7, align 4
  br label %59

26:                                               ; preds = %20
  %27 = getelementptr inbounds nuw %struct.ossl_quic_frame_new_conn_id_st, ptr %6, i32 0, i32 1
  %28 = load i64, ptr %27, align 8, !tbaa !67
  %29 = call i32 @test_uint64_t_eq(ptr noundef @.str.5, i32 noundef 778, ptr noundef @.str.111, ptr noundef @.str.55, i64 noundef %28, i64 noundef 4660)
  %30 = icmp ne i32 %29, 0
  br i1 %30, label %32, label %31

31:                                               ; preds = %26
  store i32 0, ptr %3, align 4
  store i32 1, ptr %7, align 4
  br label %59

32:                                               ; preds = %26
  %33 = getelementptr inbounds nuw %struct.ossl_quic_frame_new_conn_id_st, ptr %6, i32 0, i32 2
  %34 = getelementptr inbounds nuw %struct.quic_conn_id_st, ptr %33, i32 0, i32 0
  %35 = load i8, ptr %34, align 8, !tbaa !68
  %36 = zext i8 %35 to i64
  %37 = call i32 @test_uint64_t_eq(ptr noundef @.str.5, i32 noundef 781, ptr noundef @.str.112, ptr noundef @.str.113, i64 noundef %36, i64 noundef 4)
  %38 = icmp ne i32 %37, 0
  br i1 %38, label %40, label %39

39:                                               ; preds = %32
  store i32 0, ptr %3, align 4
  store i32 1, ptr %7, align 4
  br label %59

40:                                               ; preds = %32
  %41 = getelementptr inbounds nuw %struct.ossl_quic_frame_new_conn_id_st, ptr %6, i32 0, i32 2
  %42 = getelementptr inbounds nuw %struct.quic_conn_id_st, ptr %41, i32 0, i32 1
  %43 = getelementptr inbounds [20 x i8], ptr %42, i64 0, i64 0
  %44 = getelementptr inbounds nuw %struct.ossl_quic_frame_new_conn_id_st, ptr %6, i32 0, i32 2
  %45 = getelementptr inbounds nuw %struct.quic_conn_id_st, ptr %44, i32 0, i32 0
  %46 = load i8, ptr %45, align 8, !tbaa !68
  %47 = zext i8 %46 to i64
  %48 = call i32 @test_mem_eq(ptr noundef @.str.5, i32 noundef 785, ptr noundef @.str.114, ptr noundef @.str.115, ptr noundef %43, i64 noundef %47, ptr noundef @encode_case_16_conn_id, i64 noundef 4)
  %49 = icmp ne i32 %48, 0
  br i1 %49, label %51, label %50

50:                                               ; preds = %40
  store i32 0, ptr %3, align 4
  store i32 1, ptr %7, align 4
  br label %59

51:                                               ; preds = %40
  %52 = getelementptr inbounds nuw %struct.ossl_quic_frame_new_conn_id_st, ptr %6, i32 0, i32 3
  %53 = getelementptr inbounds nuw %struct.QUIC_STATELESS_RESET_TOKEN, ptr %52, i32 0, i32 0
  %54 = getelementptr inbounds [16 x i8], ptr %53, i64 0, i64 0
  %55 = call i32 @test_mem_eq(ptr noundef @.str.5, i32 noundef 791, ptr noundef @.str.116, ptr noundef @.str.117, ptr noundef %54, i64 noundef 16, ptr noundef getelementptr inbounds nuw (%struct.ossl_quic_frame_new_conn_id_st, ptr @encode_case_16_f, i32 0, i32 3), i64 noundef 16)
  %56 = icmp ne i32 %55, 0
  br i1 %56, label %58, label %57

57:                                               ; preds = %51
  store i32 0, ptr %3, align 4
  store i32 1, ptr %7, align 4
  br label %59

58:                                               ; preds = %51
  store i32 1, ptr %3, align 4
  store i32 1, ptr %7, align 4
  br label %59

59:                                               ; preds = %58, %57, %50, %39, %31, %25, %19, %15
  call void @llvm.lifetime.end.p0(i64 56, ptr %6) #5
  %60 = load i32, ptr %3, align 4
  ret i32 %60
}