; Function Attrs: nounwind uwtable
define internal range(i32 0, 2) i32 @encode_case_16_dec(ptr noundef %0, i64 noundef %1) #0 {
  %3 = alloca %struct.ossl_quic_frame_new_conn_id_st, align 8
  call void @llvm.lifetime.start.p0(i64 56, ptr nonnull %3) #4
  call void @llvm.memset.p0.i64(ptr noundef nonnull align 8 dereferenceable(56) %3, i8 0, i64 56, i1 false)
  %4 = call i32 @ossl_quic_wire_decode_frame_new_conn_id(ptr noundef %0, ptr noundef nonnull %3) #4
  %.lobit = lshr i64 %1, 63
  %5 = trunc nuw nsw i64 %.lobit to i32
  %6 = call i32 @test_int_eq(ptr noundef nonnull @.str.5, i32 noundef 769, ptr noundef nonnull @.str.109, ptr noundef nonnull @.str.23, i32 noundef %4, i32 noundef %5) #4
  %.not = icmp eq i32 %6, 0
  br i1 %.not, label %29, label %7

7:                                                ; preds = %2
  %8 = icmp sgt i64 %1, -1
  br i1 %8, label %29, label %9

9:                                                ; preds = %7
  %10 = load i64, ptr %3, align 8, !tbaa !51
  %11 = call i32 @test_uint64_t_eq(ptr noundef nonnull @.str.5, i32 noundef 775, ptr noundef nonnull @.str.110, ptr noundef nonnull @.str.81, i64 noundef %10, i64 noundef 38785) #4
  %.not3 = icmp eq i32 %11, 0
  br i1 %.not3, label %29, label %12

12:                                               ; preds = %9
  %13 = getelementptr inbounds nuw i8, ptr %3, i64 8
  %14 = load i64, ptr %13, align 8, !tbaa !55
  %15 = call i32 @test_uint64_t_eq(ptr noundef nonnull @.str.5, i32 noundef 778, ptr noundef nonnull @.str.111, ptr noundef nonnull @.str.55, i64 noundef %14, i64 noundef 4660) #4
  %.not4 = icmp eq i32 %15, 0
  br i1 %.not4, label %29, label %16

16:                                               ; preds = %12
  %17 = getelementptr inbounds nuw i8, ptr %3, i64 16
  %18 = load i8, ptr %17, align 8, !tbaa !56
  %19 = zext i8 %18 to i64
  %20 = call i32 @test_uint64_t_eq(ptr noundef nonnull @.str.5, i32 noundef 781, ptr noundef nonnull @.str.112, ptr noundef nonnull @.str.113, i64 noundef %19, i64 noundef 4) #4
  %.not5 = icmp eq i32 %20, 0
  br i1 %.not5, label %29, label %21

21:                                               ; preds = %16
  %22 = getelementptr inbounds nuw i8, ptr %3, i64 17
  %23 = load i8, ptr %17, align 8, !tbaa !56
  %24 = zext i8 %23 to i64
  %25 = call i32 @test_mem_eq(ptr noundef nonnull @.str.5, i32 noundef 785, ptr noundef nonnull @.str.114, ptr noundef nonnull @.str.115, ptr noundef nonnull %22, i64 noundef %24, ptr noundef nonnull @encode_case_16_conn_id, i64 noundef 4) #4
  %.not6 = icmp eq i32 %25, 0
  br i1 %.not6, label %29, label %26

26:                                               ; preds = %21
  %27 = getelementptr inbounds nuw i8, ptr %3, i64 37
  %28 = call i32 @test_mem_eq(ptr noundef nonnull @.str.5, i32 noundef 791, ptr noundef nonnull @.str.116, ptr noundef nonnull @.str.117, ptr noundef nonnull %27, i64 noundef 16, ptr noundef nonnull getelementptr inbounds nuw (i8, ptr @encode_case_16_f, i64 37), i64 noundef 16) #4
  %.not7 = icmp ne i32 %28, 0
  %. = zext i1 %.not7 to i32
  br label %29

29:                                               ; preds = %26, %21, %16, %12, %9, %7, %2
  %.0 = phi i32 [ 0, %2 ], [ 1, %7 ], [ 0, %9 ], [ 0, %12 ], [ 0, %16 ], [ 0, %21 ], [ %., %26 ]
  call void @llvm.lifetime.end.p0(i64 56, ptr nonnull %3) #4
  ret i32 %.0
}